target datalayout = "e-m:e-p270:32:32-p271:32:32-p272:64:64-i64:64-i128:128-f80:128-n8:16:32:64-S128"
target triple = "x86_64-unknown-linux-gnu"

%"class.grpc_core::Duration" = type { i64 }
%"struct.std::atomic.15" = type { %"struct.std::__atomic_base.16" }
%"struct.std::__atomic_base.16" = type { i8 }
%"class.grpc_event_engine::experimental::WorkStealingThreadPool::WorkStealingThreadPoolImpl::Lifeguard" = type <{ ptr, %"class.grpc_core::BackOff", %"class.std::unique_ptr", %"class.std::unique_ptr", %"struct.std::atomic.15", [7 x i8] }>
%"class.grpc_core::BackOff" = type { %"class.grpc_core::BackOff::Options", %"class.absl::lts_20230802::random_internal::NonsecureURBGBase", i8, %"class.grpc_core::Duration" }
%"class.grpc_core::BackOff::Options" = type { %"class.grpc_core::Duration", double, double, %"class.grpc_core::Duration" }
%"class.absl::lts_20230802::random_internal::NonsecureURBGBase" = type { %"class.absl::lts_20230802::random_internal::randen_engine" }
%"class.absl::lts_20230802::random_internal::randen_engine" = type { [264 x i8], i64, %"class.absl::lts_20230802::random_internal::Randen" }
%"class.absl::lts_20230802::random_internal::Randen" = type <{ ptr, i8, [7 x i8] }>
%"class.std::unique_ptr" = type { %"struct.std::__uniq_ptr_data" }
%"struct.std::__uniq_ptr_data" = type { %"class.std::__uniq_ptr_impl" }
%"class.std::__uniq_ptr_impl" = type { %"class.std::tuple" }
%"class.std::tuple" = type { %"struct.std::_Tuple_impl" }
%"struct.std::_Tuple_impl" = type { %"struct.std::_Head_base.18" }
%"struct.std::_Head_base.18" = type { ptr }
%"class.grpc_core::Thread" = type { i32, ptr, %"class.grpc_core::Thread::Options" }
%"class.grpc_core::Thread::Options" = type { i8, i8, i64 }
%class.anon.19 = type { i8 }

@.str.10 = private unnamed_addr constant [10 x i8] c"lifeguard\00", align 1
@.str.16 = private unnamed_addr constant [112 x i8] c"generated/home/dtcxzyw/WorkSpace/Projects/compilers/llvm-opt-benchmark/bench/grpc/grpc/src/core/lib/gprpp/thd.h\00", align 1
@.str.17 = private unnamed_addr constant [16 x i8] c"state_ == ALIVE\00", align 1
@.str.18 = private unnamed_addr constant [17 x i8] c"state_ == FAILED\00", align 1

; Function Attrs: mustprogress nounwind uwtable
define linkonce_odr noundef i32 @_ZStanSt12memory_orderSt23__memory_order_modifier(i32 noundef %__m, i32 noundef %__mod) #5 comdat {
entry:
  %__m.addr = alloca i32, align 4
  %__mod.addr = alloca i32, align 4
  store i32 %__m, ptr %__m.addr, align 4
  store i32 %__mod, ptr %__mod.addr, align 4
  %0 = load i32, ptr %__m.addr, align 4
  %1 = load i32, ptr %__mod.addr, align 4
  %and = and i32 %0, %1
  ret i32 %and
}

; Function Attrs: mustprogress uwtable
define linkonce_odr void @_ZN9grpc_core6Thread5StartEv(ptr noundef nonnull align 8 dereferenceable(32) %this) #4 comdat align 2 {
entry:
  %this.addr = alloca ptr, align 8
  store ptr %this, ptr %this.addr, align 8
  %this1 = load ptr, ptr %this.addr, align 8
  %impl_ = getelementptr inbounds %"class.grpc_core::Thread", ptr %this1, i32 0, i32 1
  %0 = load ptr, ptr %impl_, align 8
  %cmp = icmp ne ptr %0, null
  br i1 %cmp, label %if.then, label %if.else

if.then:                                          ; preds = %entry
  br label %do.body

do.body:                                          ; preds = %if.then
  %state_ = getelementptr inbounds %"class.grpc_core::Thread", ptr %this1, i32 0, i32 0
  %1 = load i32, ptr %state_, align 8
  %cmp2 = icmp eq i32 %1, 1
  %lnot = xor i1 %cmp2, true
  br i1 %lnot, label %if.then3, label %if.end

if.then3:                                         ; preds = %do.body
  call void @gpr_assertion_failed(ptr noundef @.str.16, i32 noundef 143, ptr noundef @.str.17) #19
  unreachable

if.end:                                           ; preds = %do.body
  br label %do.end

do.end:                                           ; preds = %if.end
  %state_4 = getelementptr inbounds %"class.grpc_core::Thread", ptr %this1, i32 0, i32 0
  store i32 2, ptr %state_4, align 8
  %impl_5 = getelementptr inbounds %"class.grpc_core::Thread", ptr %this1, i32 0, i32 1
  %2 = load ptr, ptr %impl_5, align 8
  %vtable = load ptr, ptr %2, align 8
  %vfn = getelementptr inbounds ptr, ptr %vtable, i64 2
  %3 = load ptr, ptr %vfn, align 8
  call void %3(ptr noundef nonnull align 8 dereferenceable(8) %2)
  br label %if.end13

if.else:                                          ; preds = %entry
  br label %do.body6

do.body6:                                         ; preds = %if.else
  %state_7 = getelementptr inbounds %"class.grpc_core::Thread", ptr %this1, i32 0, i32 0
  %4 = load i32, ptr %state_7, align 8
  %cmp8 = icmp eq i32 %4, 4
  %lnot9 = xor i1 %cmp8, true
  br i1 %lnot9, label %if.then10, label %if.end11

if.then10:                                        ; preds = %do.body6
  call void @gpr_assertion_failed(ptr noundef @.str.16, i32 noundef 152, ptr noundef @.str.18) #19
  unreachable

if.end11:                                         ; preds = %do.body6
  br label %do.end12

do.end12:                                         ; preds = %if.end11
  br label %if.end13

if.end13:                                         ; preds = %do.end12, %do.end
  ret void
}

; Function Attrs: mustprogress nounwind uwtable
define linkonce_odr noundef nonnull align 8 dereferenceable(16) ptr @_ZN9grpc_core6Thread7Options12set_joinableEb(ptr noundef nonnull align 8 dereferenceable(16) %this, i1 noundef zeroext %joinable) #5 comdat align 2 {
entry:
  %this.addr = alloca ptr, align 8
  %joinable.addr = alloca i8, align 1
  store ptr %this, ptr %this.addr, align 8
  %frombool = zext i1 %joinable to i8
  store i8 %frombool, ptr %joinable.addr, align 1
  %this1 = load ptr, ptr %this.addr, align 8
  %0 = load i8, ptr %joinable.addr, align 1
  %tobool = trunc i8 %0 to i1
  %joinable_ = getelementptr inbounds %"class.grpc_core::Thread::Options", ptr %this1, i32 0, i32 0
  %frombool2 = zext i1 %tobool to i8
  store i8 %frombool2, ptr %joinable_, align 8
  ret ptr %this1
}

; Function Attrs: mustprogress nounwind uwtable
define linkonce_odr noundef nonnull align 8 dereferenceable(16) ptr @_ZN9grpc_core6Thread7Options11set_trackedEb(ptr noundef nonnull align 8 dereferenceable(16) %this, i1 noundef zeroext %tracked) #5 comdat align 2 {
entry:
  %this.addr = alloca ptr, align 8
  %tracked.addr = alloca i8, align 1
  store ptr %this, ptr %this.addr, align 8
  %frombool = zext i1 %tracked to i8
  store i8 %frombool, ptr %tracked.addr, align 1
  %this1 = load ptr, ptr %this.addr, align 8
  %0 = load i8, ptr %tracked.addr, align 1
  %tobool = trunc i8 %0 to i1
  %tracked_ = getelementptr inbounds %"class.grpc_core::Thread::Options", ptr %this1, i32 0, i32 1
  %frombool2 = zext i1 %tobool to i8
  store i8 %frombool2, ptr %tracked_, align 1
  ret ptr %this1
}

; Function Attrs: mustprogress nounwind uwtable
define linkonce_odr void @_ZN9grpc_core6Thread7OptionsC2Ev(ptr noundef nonnull align 8 dereferenceable(16) %this) unnamed_addr #5 comdat align 2 {
entry:
  %this.addr = alloca ptr, align 8
  store ptr %this, ptr %this.addr, align 8
  %this1 = load ptr, ptr %this.addr, align 8
  %joinable_ = getelementptr inbounds %"class.grpc_core::Thread::Options", ptr %this1, i32 0, i32 0
  store i8 1, ptr %joinable_, align 8
  %tracked_ = getelementptr inbounds %"class.grpc_core::Thread::Options", ptr %this1, i32 0, i32 1
  store i8 1, ptr %tracked_, align 1
  %stack_size_ = getelementptr inbounds %"class.grpc_core::Thread::Options", ptr %this1, i32 0, i32 2
  store i64 0, ptr %stack_size_, align 8
  ret void
}

; Function Attrs: mustprogress nounwind uwtable
define internal noundef ptr @"_ZZN17grpc_event_engine12experimental22WorkStealingThreadPool26WorkStealingThreadPoolImpl9Lifeguard5StartEvENK3$_0cvPFvPvEEv"(ptr noundef nonnull align 1 dereferenceable(1) %this) #5 align 2 {
entry:
  %this.addr = alloca ptr, align 8
  store ptr %this, ptr %this.addr, align 8
  ret ptr @"_ZZN17grpc_event_engine12experimental22WorkStealingThreadPool26WorkStealingThreadPoolImpl9Lifeguard5StartEvEN3$_08__invokeEPv"
}

; Function Attrs: mustprogress nounwind uwtable
define linkonce_odr void @_ZNSt6atomicIbE5storeEbSt12memory_order(ptr noundef nonnull align 1 dereferenceable(1) %this, i1 noundef zeroext %__i, i32 noundef %__m) #5 comdat align 2 personality ptr @__gxx_personality_v0 {
entry:
  %this.addr.i = alloca ptr, align 8
  %__i.addr.i = alloca i8, align 1
  %__m.addr.i = alloca i32, align 4
  %__b.i = alloca i32, align 4
  %.atomictmp.i = alloca i8, align 1
  %this.addr = alloca ptr, align 8
  %__i.addr = alloca i8, align 1
  %__m.addr = alloca i32, align 4
  store ptr %this, ptr %this.addr, align 8
  %frombool = zext i1 %__i to i8
  store i8 %frombool, ptr %__i.addr, align 1
  store i32 %__m, ptr %__m.addr, align 4
  %this1 = load ptr, ptr %this.addr, align 8
  %_M_base = getelementptr inbounds %"struct.std::atomic.15", ptr %this1, i32 0, i32 0
  %0 = load i8, ptr %__i.addr, align 1
  %tobool = trunc i8 %0 to i1
  %1 = load i32, ptr %__m.addr, align 4
  store ptr %_M_base, ptr %this.addr.i, align 8
  %frombool.i = zext i1 %tobool to i8
  store i8 %frombool.i, ptr %__i.addr.i, align 1
  store i32 %1, ptr %__m.addr.i, align 4
  %this1.i = load ptr, ptr %this.addr.i, align 8
  %2 = load i32, ptr %__m.addr.i, align 4
  %call.i = invoke noundef i32 @_ZStanSt12memory_orderSt23__memory_order_modifier(i32 noundef %2, i32 noundef 65535)
          to label %invoke.cont.i unwind label %terminate.lpad.i

invoke.cont.i:                                    ; preds = %entry
  store i32 %call.i, ptr %__b.i, align 4
  %3 = load i32, ptr %__m.addr.i, align 4
  %4 = load i8, ptr %__i.addr.i, align 1
  %tobool.i = trunc i8 %4 to i1
  %frombool8.i = zext i1 %tobool.i to i8
  store i8 %frombool8.i, ptr %.atomictmp.i, align 1
  switch i32 %3, label %monotonic.i [
    i32 3, label %release.i
    i32 5, label %seqcst.i
  ]

monotonic.i:                                      ; preds = %invoke.cont.i
  %5 = load i8, ptr %.atomictmp.i, align 1
  store atomic i8 %5, ptr %this1.i monotonic, align 1
  br label %_ZNSt13__atomic_baseIbE5storeEbSt12memory_order.exit

release.i:                                        ; preds = %invoke.cont.i
  %6 = load i8, ptr %.atomictmp.i, align 1
  store atomic i8 %6, ptr %this1.i release, align 1
  br label %_ZNSt13__atomic_baseIbE5storeEbSt12memory_order.exit

seqcst.i:                                         ; preds = %invoke.cont.i
  %7 = load i8, ptr %.atomictmp.i, align 1
  store atomic i8 %7, ptr %this1.i seq_cst, align 1
  br label %_ZNSt13__atomic_baseIbE5storeEbSt12memory_order.exit

terminate.lpad.i:                                 ; preds = %entry
  %8 = landingpad { ptr, i32 }
          catch ptr null
  %9 = extractvalue { ptr, i32 } %8, 0
  call void @__clang_call_terminate(ptr %9) #20
  unreachable

_ZNSt13__atomic_baseIbE5storeEbSt12memory_order.exit: ; preds = %seqcst.i, %release.i, %monotonic.i
  ret void
}

; Function Attrs: mustprogress uwtable
define void @_ZN17grpc_event_engine12experimental22WorkStealingThreadPool26WorkStealingThreadPoolImpl9Lifeguard5StartEv(ptr noundef nonnull align 8 dereferenceable(361) %this) #4 align 2 personality ptr @__gxx_personality_v0 {
entry:
  %this.addr = alloca ptr, align 8
  %ref.tmp = alloca %"class.grpc_core::Thread", align 8
  %ref.tmp2 = alloca %class.anon.19, align 1
  %ref.tmp3 = alloca %"class.grpc_core::Thread::Options", align 8
  %exn.slot = alloca ptr, align 8
  %ehselector.slot = alloca i32, align 4
  store ptr %this, ptr %this.addr, align 8
  %this1 = load ptr, ptr %this.addr, align 8
  %lifeguard_running_ = getelementptr inbounds %"class.grpc_event_engine::experimental::WorkStealingThreadPool::WorkStealingThreadPoolImpl::Lifeguard", ptr %this1, i32 0, i32 4
  call void @_ZNSt6atomicIbE5storeEbSt12memory_order(ptr noundef nonnull align 1 dereferenceable(1) %lifeguard_running_, i1 noundef zeroext true, i32 noundef 5) #3
  %call = call noundef ptr @"_ZZN17grpc_event_engine12experimental22WorkStealingThreadPool26WorkStealingThreadPoolImpl9Lifeguard5StartEvENK3$_0cvPFvPvEEv"(ptr noundef nonnull align 1 dereferenceable(1) %ref.tmp2) #3
  call void @_ZN9grpc_core6Thread7OptionsC2Ev(ptr noundef nonnull align 8 dereferenceable(16) %ref.tmp3)
  %call4 = call noundef nonnull align 8 dereferenceable(16) ptr @_ZN9grpc_core6Thread7Options11set_trackedEb(ptr noundef nonnull align 8 dereferenceable(16) %ref.tmp3, i1 noundef zeroext false)
  %call5 = call noundef nonnull align 8 dereferenceable(16) ptr @_ZN9grpc_core6Thread7Options12set_joinableEb(ptr noundef nonnull align 8 dereferenceable(16) %call4, i1 noundef zeroext false)
  call void @_ZN9grpc_core6ThreadC1EPKcPFvPvES3_PbRKNS0_7OptionsE(ptr noundef nonnull align 8 dereferenceable(32) %ref.tmp, ptr noundef @.str.10, ptr noundef %call, ptr noundef %this1, ptr noundef null, ptr noundef nonnull align 8 dereferenceable(16) %call5)
  invoke void @_ZN9grpc_core6Thread5StartEv(ptr noundef nonnull align 8 dereferenceable(32) %ref.tmp)
          to label %invoke.cont unwind label %lpad

invoke.cont:                                      ; preds = %entry
  call void @_ZN9grpc_core6ThreadD2Ev(ptr noundef nonnull align 8 dereferenceable(32) %ref.tmp) #3
  ret void

lpad:                                             ; preds = %entry
  %0 = landingpad { ptr, i32 }
          cleanup
  %1 = extractvalue { ptr, i32 } %0, 0
  store ptr %1, ptr %exn.slot, align 8
  %2 = extractvalue { ptr, i32 } %0, 1
  store i32 %2, ptr %ehselector.slot, align 4
  call void @_ZN9grpc_core6ThreadD2Ev(ptr noundef nonnull align 8 dereferenceable(32) %ref.tmp) #3
  br label %eh.resume

eh.resume:                                        ; preds = %lpad
  %exn = load ptr, ptr %exn.slot, align 8
  %sel = load i32, ptr %ehselector.slot, align 4
  %lpad.val = insertvalue { ptr, i32 } poison, ptr %exn, 0
  %lpad.val6 = insertvalue { ptr, i32 } %lpad.val, i32 %sel, 1
  resume { ptr, i32 } %lpad.val6
}