; Function Attrs: mustprogress uwtable
define void @_ZN17grpc_event_engine12experimental22WorkStealingThreadPool26WorkStealingThreadPoolImpl9Lifeguard5StartEv(ptr noundef nonnull align 8 dereferenceable(361) %this) local_unnamed_addr #3 align 2 personality ptr @__gxx_personality_v0 {
entry:
  %ref.tmp = alloca %"class.grpc_core::Thread", align 8
  %ref.tmp3 = alloca %"class.grpc_core::Thread::Options", align 8
  %lifeguard_running_ = getelementptr inbounds i8, ptr %this, i64 360
  store atomic i8 1, ptr %lifeguard_running_ seq_cst, align 8
  %tracked_.i = getelementptr inbounds i8, ptr %ref.tmp3, i64 1
  %stack_size_.i = getelementptr inbounds i8, ptr %ref.tmp3, i64 8
  store i64 0, ptr %stack_size_.i, align 8
  store i8 0, ptr %tracked_.i, align 1
  store i8 0, ptr %ref.tmp3, align 8
  call void @_ZN9grpc_core6ThreadC1EPKcPFvPvES3_PbRKNS0_7OptionsE(ptr noundef nonnull align 8 dereferenceable(32) %ref.tmp, ptr noundef nonnull @.str.10, ptr noundef nonnull @"_ZZN17grpc_event_engine12experimental22WorkStealingThreadPool26WorkStealingThreadPoolImpl9Lifeguard5StartEvEN3$_08__invokeEPv", ptr noundef nonnull %this, ptr noundef null, ptr noundef nonnull align 8 dereferenceable(16) %ref.tmp3)
  %impl_.i = getelementptr inbounds i8, ptr %ref.tmp, i64 8
  %0 = load ptr, ptr %impl_.i, align 8
  %cmp.not.i = icmp eq ptr %0, null
  %1 = load i32, ptr %ref.tmp, align 8
  br i1 %cmp.not.i, label %do.body6.i, label %do.body.i

do.body.i:                                        ; preds = %entry
  %cmp2.not.i = icmp eq i32 %1, 1
  br i1 %cmp2.not.i, label %do.end.i, label %if.then10.i.invoke

do.end.i:                                         ; preds = %do.body.i
  store i32 2, ptr %ref.tmp, align 8
  %vtable.i = load ptr, ptr %0, align 8
  %vfn.i = getelementptr inbounds i8, ptr %vtable.i, i64 16
  %2 = load ptr, ptr %vfn.i, align 8
  invoke void %2(ptr noundef nonnull align 8 dereferenceable(8) %0)
          to label %invoke.cont unwind label %lpad

do.body6.i:                                       ; preds = %entry
  %cmp8.not.i = icmp eq i32 %1, 4
  br i1 %cmp8.not.i, label %_ZN9grpc_core6ThreadD2Ev.exit, label %if.then10.i.invoke

if.then10.i.invoke:                               ; preds = %do.body6.i, %do.body.i
  %3 = phi i32 [ 143, %do.body.i ], [ 152, %do.body6.i ]
  %4 = phi ptr [ @.str.17, %do.body.i ], [ @.str.18, %do.body6.i ]
  invoke void @gpr_assertion_failed(ptr noundef nonnull @.str.16, i32 noundef %3, ptr noundef nonnull %4) #25
          to label %if.then10.i.cont unwind label %lpad

if.then10.i.cont:                                 ; preds = %if.then10.i.invoke
  unreachable

invoke.cont:                                      ; preds = %do.end.i
  %.pre = load ptr, ptr %impl_.i, align 8
  %5 = icmp ne ptr %.pre, null
  %options_.i = getelementptr inbounds i8, ptr %ref.tmp, i64 16
  %6 = load i8, ptr %options_.i, align 8
  %7 = and i8 %6, 1
  %tobool.i.i = icmp ne i8 %7, 0
  %lnot.i = select i1 %tobool.i.i, i1 %5, i1 false
  br i1 %lnot.i, label %if.then.i, label %_ZN9grpc_core6ThreadD2Ev.exit

if.then.i:                                        ; preds = %invoke.cont
  invoke void @gpr_assertion_failed(ptr noundef nonnull @.str.16, i32 noundef 139, ptr noundef nonnull @.str.19) #25
          to label %invoke.cont2.i unwind label %terminate.lpad.i

invoke.cont2.i:                                   ; preds = %if.then.i
  unreachable

terminate.lpad.i:                                 ; preds = %if.then.i
  %8 = landingpad { ptr, i32 }
          catch ptr null
  %9 = extractvalue { ptr, i32 } %8, 0
  call void @__clang_call_terminate(ptr %9) #24
  unreachable

_ZN9grpc_core6ThreadD2Ev.exit:                    ; preds = %do.body6.i, %invoke.cont
  ret void

lpad:                                             ; preds = %if.then10.i.invoke, %do.end.i
  %10 = landingpad { ptr, i32 }
          cleanup
  call void @_ZN9grpc_core6ThreadD2Ev(ptr noundef nonnull align 8 dereferenceable(32) %ref.tmp) #23
  resume { ptr, i32 } %10
}